target datalayout = "e-m:e-p270:32:32-p271:32:32-p272:64:64-i64:64-i128:128-f80:128-n8:16:32:64-S128"
target triple = "x86_64-unknown-linux-gnu"

%"struct.Imf_3_2::(anonymous namespace)::memdata" = type { ptr, i64 }

; Function Attrs: mustprogress nounwind uwtable
define internal noundef i64 @_ZN7Imf_3_212_GLOBAL__N_114memstream_readEPK19_priv_exr_context_tPvS4_mmPFiS3_iPKczE(ptr noundef %f, ptr noundef %userdata, ptr noundef %buffer, i64 noundef %sz, i64 noundef %offset, ptr noundef %errcb) #5 {
entry:
  %f.addr = alloca ptr, align 8
  %userdata.addr = alloca ptr, align 8
  %buffer.addr = alloca ptr, align 8
  %sz.addr = alloca i64, align 8
  %offset.addr = alloca i64, align 8
  %errcb.addr = alloca ptr, align 8
  %rdsz = alloca i64, align 8
  %md = alloca ptr, align 8
  %left = alloca i64, align 8
  store ptr %f, ptr %f.addr, align 8
  store ptr %userdata, ptr %userdata.addr, align 8
  store ptr %buffer, ptr %buffer.addr, align 8
  store i64 %sz, ptr %sz.addr, align 8
  store i64 %offset, ptr %offset.addr, align 8
  store ptr %errcb, ptr %errcb.addr, align 8
  store i64 -1, ptr %rdsz, align 8
  %0 = load ptr, ptr %userdata.addr, align 8
  %tobool = icmp ne ptr %0, null
  br i1 %tobool, label %if.then, label %if.end13

if.then:                                          ; preds = %entry
  %1 = load ptr, ptr %userdata.addr, align 8
  store ptr %1, ptr %md, align 8
  %2 = load i64, ptr %sz.addr, align 8
  store i64 %2, ptr %left, align 8
  %3 = load i64, ptr %offset.addr, align 8
  %4 = load ptr, ptr %md, align 8
  %bytes = getelementptr inbounds %"struct.Imf_3_2::(anonymous namespace)::memdata", ptr %4, i32 0, i32 1
  %5 = load i64, ptr %bytes, align 8
  %cmp = icmp ugt i64 %3, %5
  br i1 %cmp, label %if.then6, label %lor.lhs.false

lor.lhs.false:                                    ; preds = %if.then
  %6 = load i64, ptr %sz.addr, align 8
  %7 = load ptr, ptr %md, align 8
  %bytes1 = getelementptr inbounds %"struct.Imf_3_2::(anonymous namespace)::memdata", ptr %7, i32 0, i32 1
  %8 = load i64, ptr %bytes1, align 8
  %cmp2 = icmp ugt i64 %6, %8
  br i1 %cmp2, label %if.then6, label %lor.lhs.false3

lor.lhs.false3:                                   ; preds = %lor.lhs.false
  %9 = load i64, ptr %offset.addr, align 8
  %10 = load i64, ptr %sz.addr, align 8
  %add = add i64 %9, %10
  %11 = load ptr, ptr %md, align 8
  %bytes4 = getelementptr inbounds %"struct.Imf_3_2::(anonymous namespace)::memdata", ptr %11, i32 0, i32 1
  %12 = load i64, ptr %bytes4, align 8
  %cmp5 = icmp ugt i64 %add, %12
  br i1 %cmp5, label %if.then6, label %if.end

if.then6:                                         ; preds = %lor.lhs.false3, %lor.lhs.false, %if.then
  %13 = load i64, ptr %offset.addr, align 8
  %14 = load ptr, ptr %md, align 8
  %bytes7 = getelementptr inbounds %"struct.Imf_3_2::(anonymous namespace)::memdata", ptr %14, i32 0, i32 1
  %15 = load i64, ptr %bytes7, align 8
  %cmp8 = icmp ult i64 %13, %15
  br i1 %cmp8, label %cond.true, label %cond.false

cond.true:                                        ; preds = %if.then6
  %16 = load ptr, ptr %md, align 8
  %bytes9 = getelementptr inbounds %"struct.Imf_3_2::(anonymous namespace)::memdata", ptr %16, i32 0, i32 1
  %17 = load i64, ptr %bytes9, align 8
  %18 = load i64, ptr %offset.addr, align 8
  %sub = sub i64 %17, %18
  br label %cond.end

cond.false:                                       ; preds = %if.then6
  br label %cond.end

cond.end:                                         ; preds = %cond.false, %cond.true
  %cond = phi i64 [ %sub, %cond.true ], [ 0, %cond.false ]
  store i64 %cond, ptr %left, align 8
  br label %if.end

if.end:                                           ; preds = %cond.end, %lor.lhs.false3
  %19 = load i64, ptr %left, align 8
  %cmp10 = icmp ugt i64 %19, 0
  br i1 %cmp10, label %if.then11, label %if.end12

if.then11:                                        ; preds = %if.end
  %20 = load ptr, ptr %buffer.addr, align 8
  %21 = load ptr, ptr %md, align 8
  %data = getelementptr inbounds %"struct.Imf_3_2::(anonymous namespace)::memdata", ptr %21, i32 0, i32 0
  %22 = load ptr, ptr %data, align 8
  %23 = load i64, ptr %offset.addr, align 8
  %add.ptr = getelementptr inbounds i8, ptr %22, i64 %23
  %24 = load i64, ptr %left, align 8
  call void @llvm.memcpy.p0.p0.i64(ptr align 1 %20, ptr align 1 %add.ptr, i64 %24, i1 false)
  br label %if.end12

if.end12:                                         ; preds = %if.then11, %if.end
  %25 = load i64, ptr %left, align 8
  store i64 %25, ptr %rdsz, align 8
  br label %if.end13

if.end13:                                         ; preds = %if.end12, %entry
  %26 = load i64, ptr %rdsz, align 8
  ret i64 %26
}