; Function Attrs: mustprogress nofree norecurse nosync nounwind willreturn memory(readwrite, inaccessiblemem: none) uwtable
define internal noundef i64 @_ZN7Imf_3_212_GLOBAL__N_114memstream_readEPK19_priv_exr_context_tPvS4_mmPFiS3_iPKczE(ptr nocapture readnone %f, ptr noundef readonly %userdata, ptr nocapture noundef writeonly %buffer, i64 noundef %sz, i64 noundef %offset, ptr nocapture readnone %errcb) #13 {
entry:
  %tobool.not = icmp eq ptr %userdata, null
  br i1 %tobool.not, label %if.end13, label %if.then

if.then:                                          ; preds = %entry
  %bytes = getelementptr inbounds i8, ptr %userdata, i64 8
  %0 = load i64, ptr %bytes, align 8
  %cmp = icmp ult i64 %0, %offset
  %cmp2 = icmp ult i64 %0, %sz
  %or.cond = or i1 %cmp, %cmp2
  %add = add i64 %offset, %sz
  %cmp5 = icmp ugt i64 %add, %0
  %or.cond16 = or i1 %cmp5, %or.cond
  br i1 %or.cond16, label %if.then6, label %if.end

if.then6:                                         ; preds = %if.then
  %cmp8 = icmp ugt i64 %0, %offset
  %sub = sub i64 %0, %offset
  br i1 %cmp8, label %if.end, label %if.end13

if.end:                                           ; preds = %if.then6, %if.then
  %left.0 = phi i64 [ %sz, %if.then ], [ %sub, %if.then6 ]
  %cmp10.not = icmp eq i64 %left.0, 0
  br i1 %cmp10.not, label %if.end13, label %if.then11

if.then11:                                        ; preds = %if.end
  %1 = load ptr, ptr %userdata, align 8
  %add.ptr = getelementptr inbounds i8, ptr %1, i64 %offset
  tail call void @llvm.memcpy.p0.p0.i64(ptr align 1 %buffer, ptr align 1 %add.ptr, i64 %left.0, i1 false)
  br label %if.end13

if.end13:                                         ; preds = %if.then6, %if.end, %if.then11, %entry
  %rdsz.0 = phi i64 [ -1, %entry ], [ %left.0, %if.then11 ], [ 0, %if.end ], [ 0, %if.then6 ]
  ret i64 %rdsz.0
}